target datalayout = "e-m:e-p270:32:32-p271:32:32-p272:64:64-i64:64-i128:128-f80:128-n8:16:32:64-S128"
target triple = "x86_64-unknown-linux-gnu"

%struct.sdshdr8 = type { i8, i8, i8, [0 x i8] }
%struct.sdshdr16 = type <{ i16, i16, i8, [0 x i8] }>
%struct.sdshdr32 = type <{ i32, i32, i8, [0 x i8] }>
%struct.sdshdr64 = type <{ i64, i64, i8, [0 x i8] }>

; Function Attrs: nounwind uwtable
define internal void @sdssetlen(ptr noundef %s, i64 noundef %newlen) #0 {
entry:
  %s.addr = alloca ptr, align 8
  %newlen.addr = alloca i64, align 8
  %flags = alloca i8, align 1
  %fp = alloca ptr, align 8
  store ptr %s, ptr %s.addr, align 8
  store i64 %newlen, ptr %newlen.addr, align 8
  %0 = load ptr, ptr %s.addr, align 8
  %arrayidx = getelementptr inbounds i8, ptr %0, i64 -1
  %1 = load i8, ptr %arrayidx, align 1
  store i8 %1, ptr %flags, align 1
  %2 = load i8, ptr %flags, align 1
  %conv = zext i8 %2 to i32
  %and = and i32 %conv, 7
  switch i32 %and, label %sw.epilog [
    i32 0, label %sw.bb
    i32 1, label %sw.bb2
    i32 2, label %sw.bb5
    i32 3, label %sw.bb9
    i32 4, label %sw.bb13
  ]

sw.bb:                                            ; preds = %entry
  %3 = load ptr, ptr %s.addr, align 8
  %add.ptr = getelementptr inbounds i8, ptr %3, i64 -1
  store ptr %add.ptr, ptr %fp, align 8
  %4 = load i64, ptr %newlen.addr, align 8
  %shl = shl i64 %4, 3
  %or = or i64 0, %shl
  %conv1 = trunc i64 %or to i8
  %5 = load ptr, ptr %fp, align 8
  store i8 %conv1, ptr %5, align 1
  br label %sw.epilog

sw.bb2:                                           ; preds = %entry
  %6 = load i64, ptr %newlen.addr, align 8
  %conv3 = trunc i64 %6 to i8
  %7 = load ptr, ptr %s.addr, align 8
  %add.ptr4 = getelementptr inbounds i8, ptr %7, i64 -3
  %len = getelementptr inbounds %struct.sdshdr8, ptr %add.ptr4, i32 0, i32 0
  store i8 %conv3, ptr %len, align 1
  br label %sw.epilog

sw.bb5:                                           ; preds = %entry
  %8 = load i64, ptr %newlen.addr, align 8
  %conv6 = trunc i64 %8 to i16
  %9 = load ptr, ptr %s.addr, align 8
  %add.ptr7 = getelementptr inbounds i8, ptr %9, i64 -5
  %len8 = getelementptr inbounds %struct.sdshdr16, ptr %add.ptr7, i32 0, i32 0
  store i16 %conv6, ptr %len8, align 1
  br label %sw.epilog

sw.bb9:                                           ; preds = %entry
  %10 = load i64, ptr %newlen.addr, align 8
  %conv10 = trunc i64 %10 to i32
  %11 = load ptr, ptr %s.addr, align 8
  %add.ptr11 = getelementptr inbounds i8, ptr %11, i64 -9
  %len12 = getelementptr inbounds %struct.sdshdr32, ptr %add.ptr11, i32 0, i32 0
  store i32 %conv10, ptr %len12, align 1
  br label %sw.epilog

sw.bb13:                                          ; preds = %entry
  %12 = load i64, ptr %newlen.addr, align 8
  %13 = load ptr, ptr %s.addr, align 8
  %add.ptr14 = getelementptr inbounds i8, ptr %13, i64 -17
  %len15 = getelementptr inbounds %struct.sdshdr64, ptr %add.ptr14, i32 0, i32 0
  store i64 %12, ptr %len15, align 1
  br label %sw.epilog

sw.epilog:                                        ; preds = %sw.bb13, %sw.bb9, %sw.bb5, %sw.bb2, %sw.bb, %entry
  ret void
}

; Function Attrs: nounwind uwtable
define dso_local ptr @sdsMakeRoomFor(ptr noundef %s, i64 noundef %addlen) #0 {
entry:
  %s.addr = alloca ptr, align 8
  %addlen.addr = alloca i64, align 8
  store ptr %s, ptr %s.addr, align 8
  store i64 %addlen, ptr %addlen.addr, align 8
  %0 = load ptr, ptr %s.addr, align 8
  %1 = load i64, ptr %addlen.addr, align 8
  %call = call ptr @_sdsMakeRoomFor(ptr noundef %0, i64 noundef %1, i32 noundef 1)
  ret ptr %call
}

; Function Attrs: nounwind uwtable
define internal i64 @sdslen(ptr noundef %s) #0 {
entry:
  %retval = alloca i64, align 8
  %s.addr = alloca ptr, align 8
  %flags = alloca i8, align 1
  store ptr %s, ptr %s.addr, align 8
  %0 = load ptr, ptr %s.addr, align 8
  %arrayidx = getelementptr inbounds i8, ptr %0, i64 -1
  %1 = load i8, ptr %arrayidx, align 1
  store i8 %1, ptr %flags, align 1
  %2 = load i8, ptr %flags, align 1
  %conv = zext i8 %2 to i32
  %and = and i32 %conv, 7
  switch i32 %and, label %sw.epilog [
    i32 0, label %sw.bb
    i32 1, label %sw.bb3
    i32 2, label %sw.bb5
    i32 3, label %sw.bb9
    i32 4, label %sw.bb13
  ]

sw.bb:                                            ; preds = %entry
  %3 = load i8, ptr %flags, align 1
  %conv1 = zext i8 %3 to i32
  %shr = ashr i32 %conv1, 3
  %conv2 = sext i32 %shr to i64
  store i64 %conv2, ptr %retval, align 8
  br label %return

sw.bb3:                                           ; preds = %entry
  %4 = load ptr, ptr %s.addr, align 8
  %add.ptr = getelementptr inbounds i8, ptr %4, i64 -3
  %len = getelementptr inbounds %struct.sdshdr8, ptr %add.ptr, i32 0, i32 0
  %5 = load i8, ptr %len, align 1
  %conv4 = zext i8 %5 to i64
  store i64 %conv4, ptr %retval, align 8
  br label %return

sw.bb5:                                           ; preds = %entry
  %6 = load ptr, ptr %s.addr, align 8
  %add.ptr6 = getelementptr inbounds i8, ptr %6, i64 -5
  %len7 = getelementptr inbounds %struct.sdshdr16, ptr %add.ptr6, i32 0, i32 0
  %7 = load i16, ptr %len7, align 1
  %conv8 = zext i16 %7 to i64
  store i64 %conv8, ptr %retval, align 8
  br label %return

sw.bb9:                                           ; preds = %entry
  %8 = load ptr, ptr %s.addr, align 8
  %add.ptr10 = getelementptr inbounds i8, ptr %8, i64 -9
  %len11 = getelementptr inbounds %struct.sdshdr32, ptr %add.ptr10, i32 0, i32 0
  %9 = load i32, ptr %len11, align 1
  %conv12 = zext i32 %9 to i64
  store i64 %conv12, ptr %retval, align 8
  br label %return

sw.bb13:                                          ; preds = %entry
  %10 = load ptr, ptr %s.addr, align 8
  %add.ptr14 = getelementptr inbounds i8, ptr %10, i64 -17
  %len15 = getelementptr inbounds %struct.sdshdr64, ptr %add.ptr14, i32 0, i32 0
  %11 = load i64, ptr %len15, align 1
  store i64 %11, ptr %retval, align 8
  br label %return

sw.epilog:                                        ; preds = %entry
  store i64 0, ptr %retval, align 8
  br label %return

return:                                           ; preds = %sw.epilog, %sw.bb13, %sw.bb9, %sw.bb5, %sw.bb3, %sw.bb
  %12 = load i64, ptr %retval, align 8
  ret i64 %12
}

; Function Attrs: nounwind uwtable
define internal i64 @sdsalloc(ptr noundef %s) #0 {
entry:
  %retval = alloca i64, align 8
  %s.addr = alloca ptr, align 8
  %flags = alloca i8, align 1
  store ptr %s, ptr %s.addr, align 8
  %0 = load ptr, ptr %s.addr, align 8
  %arrayidx = getelementptr inbounds i8, ptr %0, i64 -1
  %1 = load i8, ptr %arrayidx, align 1
  store i8 %1, ptr %flags, align 1
  %2 = load i8, ptr %flags, align 1
  %conv = zext i8 %2 to i32
  %and = and i32 %conv, 7
  switch i32 %and, label %sw.epilog [
    i32 0, label %sw.bb
    i32 1, label %sw.bb3
    i32 2, label %sw.bb5
    i32 3, label %sw.bb9
    i32 4, label %sw.bb13
  ]

sw.bb:                                            ; preds = %entry
  %3 = load i8, ptr %flags, align 1
  %conv1 = zext i8 %3 to i32
  %shr = ashr i32 %conv1, 3
  %conv2 = sext i32 %shr to i64
  store i64 %conv2, ptr %retval, align 8
  br label %return

sw.bb3:                                           ; preds = %entry
  %4 = load ptr, ptr %s.addr, align 8
  %add.ptr = getelementptr inbounds i8, ptr %4, i64 -3
  %alloc = getelementptr inbounds %struct.sdshdr8, ptr %add.ptr, i32 0, i32 1
  %5 = load i8, ptr %alloc, align 1
  %conv4 = zext i8 %5 to i64
  store i64 %conv4, ptr %retval, align 8
  br label %return

sw.bb5:                                           ; preds = %entry
  %6 = load ptr, ptr %s.addr, align 8
  %add.ptr6 = getelementptr inbounds i8, ptr %6, i64 -5
  %alloc7 = getelementptr inbounds %struct.sdshdr16, ptr %add.ptr6, i32 0, i32 1
  %7 = load i16, ptr %alloc7, align 1
  %conv8 = zext i16 %7 to i64
  store i64 %conv8, ptr %retval, align 8
  br label %return

sw.bb9:                                           ; preds = %entry
  %8 = load ptr, ptr %s.addr, align 8
  %add.ptr10 = getelementptr inbounds i8, ptr %8, i64 -9
  %alloc11 = getelementptr inbounds %struct.sdshdr32, ptr %add.ptr10, i32 0, i32 1
  %9 = load i32, ptr %alloc11, align 1
  %conv12 = zext i32 %9 to i64
  store i64 %conv12, ptr %retval, align 8
  br label %return

sw.bb13:                                          ; preds = %entry
  %10 = load ptr, ptr %s.addr, align 8
  %add.ptr14 = getelementptr inbounds i8, ptr %10, i64 -17
  %alloc15 = getelementptr inbounds %struct.sdshdr64, ptr %add.ptr14, i32 0, i32 1
  %11 = load i64, ptr %alloc15, align 1
  store i64 %11, ptr %retval, align 8
  br label %return

sw.epilog:                                        ; preds = %entry
  store i64 0, ptr %retval, align 8
  br label %return

return:                                           ; preds = %sw.epilog, %sw.bb13, %sw.bb9, %sw.bb5, %sw.bb3, %sw.bb
  %12 = load i64, ptr %retval, align 8
  ret i64 %12
}

; Function Attrs: nounwind uwtable
define dso_local ptr @sdscpylen(ptr noundef %s, ptr noundef %t, i64 noundef %len) #0 {
entry:
  %retval = alloca ptr, align 8
  %s.addr = alloca ptr, align 8
  %t.addr = alloca ptr, align 8
  %len.addr = alloca i64, align 8
  store ptr %s, ptr %s.addr, align 8
  store ptr %t, ptr %t.addr, align 8
  store i64 %len, ptr %len.addr, align 8
  %0 = load ptr, ptr %s.addr, align 8
  %call = call i64 @sdsalloc(ptr noundef %0)
  %1 = load i64, ptr %len.addr, align 8
  %cmp = icmp ult i64 %call, %1
  br i1 %cmp, label %if.then, label %if.end5

if.then:                                          ; preds = %entry
  %2 = load ptr, ptr %s.addr, align 8
  %3 = load i64, ptr %len.addr, align 8
  %4 = load ptr, ptr %s.addr, align 8
  %call1 = call i64 @sdslen(ptr noundef %4)
  %sub = sub i64 %3, %call1
  %call2 = call ptr @sdsMakeRoomFor(ptr noundef %2, i64 noundef %sub)
  store ptr %call2, ptr %s.addr, align 8
  %5 = load ptr, ptr %s.addr, align 8
  %cmp3 = icmp eq ptr %5, null
  br i1 %cmp3, label %if.then4, label %if.end

if.then4:                                         ; preds = %if.then
  store ptr null, ptr %retval, align 8
  br label %return

if.end:                                           ; preds = %if.then
  br label %if.end5

if.end5:                                          ; preds = %if.end, %entry
  %6 = load ptr, ptr %s.addr, align 8
  %7 = load ptr, ptr %t.addr, align 8
  %8 = load i64, ptr %len.addr, align 8
  call void @llvm.memcpy.p0.p0.i64(ptr align 1 %6, ptr align 1 %7, i64 %8, i1 false)
  %9 = load ptr, ptr %s.addr, align 8
  %10 = load i64, ptr %len.addr, align 8
  %arrayidx = getelementptr inbounds i8, ptr %9, i64 %10
  store i8 0, ptr %arrayidx, align 1
  %11 = load ptr, ptr %s.addr, align 8
  %12 = load i64, ptr %len.addr, align 8
  call void @sdssetlen(ptr noundef %11, i64 noundef %12)
  %13 = load ptr, ptr %s.addr, align 8
  store ptr %13, ptr %retval, align 8
  br label %return

return:                                           ; preds = %if.end5, %if.then4
  %14 = load ptr, ptr %retval, align 8
  ret ptr %14
}