; Function Attrs: nounwind uwtable
define dso_local ptr @sdscpylen(ptr noundef %s, ptr nocapture noundef readonly %t, i64 noundef %len) local_unnamed_addr #0 {
entry:
  %arrayidx.i = getelementptr inbounds i8, ptr %s, i64 -1
  %0 = load i8, ptr %arrayidx.i, align 1
  %conv.i = zext i8 %0 to i32
  %and.i = and i32 %conv.i, 7
  switch i32 %and.i, label %sdsalloc.exit [
    i32 0, label %sw.bb.i
    i32 1, label %sw.bb3.i
    i32 2, label %sw.bb5.i
    i32 3, label %sw.bb9.i
    i32 4, label %sw.bb13.i
  ]

sw.bb.i:                                          ; preds = %entry
  %shr.i = lshr i32 %conv.i, 3
  %conv2.i = zext nneg i32 %shr.i to i64
  br label %sdsalloc.exit

sw.bb3.i:                                         ; preds = %entry
  %alloc.i = getelementptr inbounds i8, ptr %s, i64 -2
  %1 = load i8, ptr %alloc.i, align 1
  %conv4.i = zext i8 %1 to i64
  br label %sdsalloc.exit

sw.bb5.i:                                         ; preds = %entry
  %alloc7.i = getelementptr inbounds i8, ptr %s, i64 -3
  %2 = load i16, ptr %alloc7.i, align 1
  %conv8.i = zext i16 %2 to i64
  br label %sdsalloc.exit

sw.bb9.i:                                         ; preds = %entry
  %alloc11.i = getelementptr inbounds i8, ptr %s, i64 -5
  %3 = load i32, ptr %alloc11.i, align 1
  %conv12.i = zext i32 %3 to i64
  br label %sdsalloc.exit

sw.bb13.i:                                        ; preds = %entry
  %alloc15.i = getelementptr inbounds i8, ptr %s, i64 -9
  %4 = load i64, ptr %alloc15.i, align 1
  br label %sdsalloc.exit

sdsalloc.exit:                                    ; preds = %entry, %sw.bb.i, %sw.bb3.i, %sw.bb5.i, %sw.bb9.i, %sw.bb13.i
  %retval.0.i = phi i64 [ %4, %sw.bb13.i ], [ %conv12.i, %sw.bb9.i ], [ %conv8.i, %sw.bb5.i ], [ %conv4.i, %sw.bb3.i ], [ %conv2.i, %sw.bb.i ], [ 0, %entry ]
  %cmp = icmp ult i64 %retval.0.i, %len
  br i1 %cmp, label %if.then, label %if.end5

if.then:                                          ; preds = %sdsalloc.exit
  switch i32 %and.i, label %sdslen.exit [
    i32 0, label %sw.bb.i23
    i32 1, label %sw.bb3.i21
    i32 2, label %sw.bb5.i19
    i32 3, label %sw.bb9.i17
    i32 4, label %sw.bb13.i15
  ]

sw.bb.i23:                                        ; preds = %if.then
  %shr.i24 = lshr i32 %conv.i, 3
  %conv2.i25 = zext nneg i32 %shr.i24 to i64
  br label %sdslen.exit

sw.bb3.i21:                                       ; preds = %if.then
  %add.ptr.i = getelementptr inbounds i8, ptr %s, i64 -3
  %5 = load i8, ptr %add.ptr.i, align 1
  %conv4.i22 = zext i8 %5 to i64
  br label %sdslen.exit

sw.bb5.i19:                                       ; preds = %if.then
  %add.ptr6.i = getelementptr inbounds i8, ptr %s, i64 -5
  %6 = load i16, ptr %add.ptr6.i, align 1
  %conv8.i20 = zext i16 %6 to i64
  br label %sdslen.exit

sw.bb9.i17:                                       ; preds = %if.then
  %add.ptr10.i = getelementptr inbounds i8, ptr %s, i64 -9
  %7 = load i32, ptr %add.ptr10.i, align 1
  %conv12.i18 = zext i32 %7 to i64
  br label %sdslen.exit

sw.bb13.i15:                                      ; preds = %if.then
  %add.ptr14.i = getelementptr inbounds i8, ptr %s, i64 -17
  %8 = load i64, ptr %add.ptr14.i, align 1
  br label %sdslen.exit

sdslen.exit:                                      ; preds = %if.then, %sw.bb.i23, %sw.bb3.i21, %sw.bb5.i19, %sw.bb9.i17, %sw.bb13.i15
  %retval.0.i16 = phi i64 [ %8, %sw.bb13.i15 ], [ %conv12.i18, %sw.bb9.i17 ], [ %conv8.i20, %sw.bb5.i19 ], [ %conv4.i22, %sw.bb3.i21 ], [ %conv2.i25, %sw.bb.i23 ], [ 0, %if.then ]
  %sub = sub i64 %len, %retval.0.i16
  %call.i = tail call ptr @_sdsMakeRoomFor(ptr noundef nonnull %s, i64 noundef %sub, i32 noundef 1)
  %cmp3 = icmp eq ptr %call.i, null
  br i1 %cmp3, label %return, label %if.end5

if.end5:                                          ; preds = %sdslen.exit, %sdsalloc.exit
  %s.addr.0 = phi ptr [ %call.i, %sdslen.exit ], [ %s, %sdsalloc.exit ]
  tail call void @llvm.memcpy.p0.p0.i64(ptr nonnull align 1 %s.addr.0, ptr align 1 %t, i64 %len, i1 false)
  %arrayidx = getelementptr inbounds i8, ptr %s.addr.0, i64 %len
  store i8 0, ptr %arrayidx, align 1
  %arrayidx.i26 = getelementptr inbounds i8, ptr %s.addr.0, i64 -1
  %9 = load i8, ptr %arrayidx.i26, align 1
  %10 = and i8 %9, 7
  switch i8 %10, label %return [
    i8 0, label %sw.bb.i31
    i8 1, label %sw.bb2.i
    i8 2, label %sw.bb5.i30
    i8 3, label %sw.bb9.i29
    i8 4, label %sw.bb13.i27
  ]

sw.bb.i31:                                        ; preds = %if.end5
  %newlen.tr.i = trunc i64 %len to i8
  %conv1.i = shl i8 %newlen.tr.i, 3
  store i8 %conv1.i, ptr %arrayidx.i26, align 1
  br label %return

sw.bb2.i:                                         ; preds = %if.end5
  %conv3.i = trunc i64 %len to i8
  %add.ptr4.i = getelementptr inbounds i8, ptr %s.addr.0, i64 -3
  store i8 %conv3.i, ptr %add.ptr4.i, align 1
  br label %return

sw.bb5.i30:                                       ; preds = %if.end5
  %conv6.i = trunc i64 %len to i16
  %add.ptr7.i = getelementptr inbounds i8, ptr %s.addr.0, i64 -5
  store i16 %conv6.i, ptr %add.ptr7.i, align 1
  br label %return

sw.bb9.i29:                                       ; preds = %if.end5
  %conv10.i = trunc i64 %len to i32
  %add.ptr11.i = getelementptr inbounds i8, ptr %s.addr.0, i64 -9
  store i32 %conv10.i, ptr %add.ptr11.i, align 1
  br label %return

sw.bb13.i27:                                      ; preds = %if.end5
  %add.ptr14.i28 = getelementptr inbounds i8, ptr %s.addr.0, i64 -17
  store i64 %len, ptr %add.ptr14.i28, align 1
  br label %return

return:                                           ; preds = %sw.bb13.i27, %sw.bb9.i29, %sw.bb5.i30, %sw.bb2.i, %sw.bb.i31, %if.end5, %sdslen.exit
  %retval.0 = phi ptr [ null, %sdslen.exit ], [ %s.addr.0, %if.end5 ], [ %s.addr.0, %sw.bb.i31 ], [ %s.addr.0, %sw.bb2.i ], [ %s.addr.0, %sw.bb5.i30 ], [ %s.addr.0, %sw.bb9.i29 ], [ %s.addr.0, %sw.bb13.i27 ]
  ret ptr %retval.0
}